target datalayout = "e-m:e-p270:32:32-p271:32:32-p272:64:64-i64:64-i128:128-f80:128-n8:16:32:64-S128"
target triple = "x86_64-pc-linux-gnu"

%struct.MP = type { i64, [100 x ptr], %union.anon }
%union.anon = type { %struct.MPMAP }
%struct.MPMAP = type { ptr, i64, i64 }
%struct.FRAG = type { %union.anon.0 }
%union.anon.0 = type { %struct.unaligned_ptr }
%struct.unaligned_ptr = type { ptr }
%struct.alloced = type { i8, i8, i8 }

@.str.10 = private unnamed_addr constant [10 x i8] c"free @%p\0A\00", align 1
@.str.11 = private unnamed_addr constant [111 x i8] c"mpool_realloc(): Attempt to allocate %lu bytes. Please report to https://github.com/Cisco-Talos/clamav/issues\0A\00", align 1
@.str.12 = private unnamed_addr constant [54 x i8] c"malloc @%p size %lu (self) origsize %lu overhead %lu\0A\00", align 1

; Function Attrs: nounwind uwtable
define internal ptr @allocbase_fromfrag(ptr noundef %0) #0 {
  %2 = alloca ptr, align 8
  store ptr %0, ptr %2, align 8
  %3 = load ptr, ptr %2, align 8
  %4 = load ptr, ptr %2, align 8
  %5 = getelementptr inbounds %struct.FRAG, ptr %4, i32 0, i32 0
  %6 = getelementptr inbounds %struct.alloced, ptr %5, i32 0, i32 0
  %7 = load i8, ptr %6, align 1
  %8 = zext i8 %7 to i32
  %9 = sext i32 %8 to i64
  %10 = sub i64 0, %9
  %11 = getelementptr inbounds i8, ptr %3, i64 %10
  ret ptr %11
}

; Function Attrs: nounwind uwtable
define internal void @spam(ptr noundef %0, ...) #0 {
  %2 = alloca ptr, align 8
  store ptr %0, ptr %2, align 8
  ret void
}

; Function Attrs: nounwind uwtable
define internal i64 @from_bits(i32 noundef %0) #0 {
  %2 = alloca i64, align 8
  %3 = alloca i32, align 4
  store i32 %0, ptr %3, align 4
  %4 = load i32, ptr %3, align 4
  %5 = zext i32 %4 to i64
  %6 = icmp uge i64 %5, 100
  br i1 %6, label %7, label %8

7:                                                ; preds = %1
  store i64 0, ptr %2, align 8
  br label %14

8:                                                ; preds = %1
  %9 = load i32, ptr %3, align 4
  %10 = zext i32 %9 to i64
  %11 = getelementptr inbounds [100 x i32], ptr @fragsz, i64 0, i64 %10
  %12 = load i32, ptr %11, align 4
  %13 = zext i32 %12 to i64
  store i64 %13, ptr %2, align 8
  br label %14

14:                                               ; preds = %8, %7
  %15 = load i64, ptr %2, align 8
  ret i64 %15
}

; Function Attrs: nounwind uwtable
define void @mpool_free(ptr noundef %0, ptr noundef %1) #0 {
  %3 = alloca ptr, align 8
  %4 = alloca ptr, align 8
  %5 = alloca ptr, align 8
  %6 = alloca i32, align 4
  store ptr %0, ptr %3, align 8
  store ptr %1, ptr %4, align 8
  store ptr null, ptr %5, align 8
  store i32 0, ptr %6, align 4
  %7 = load ptr, ptr %4, align 8
  %8 = icmp ne ptr %7, null
  br i1 %8, label %10, label %9

9:                                                ; preds = %2
  br label %36

10:                                               ; preds = %2
  %11 = load ptr, ptr %4, align 8
  %12 = getelementptr inbounds i8, ptr %11, i64 -2
  store ptr %12, ptr %5, align 8
  %13 = load ptr, ptr %5, align 8
  call void (ptr, ...) @spam(ptr noundef @.str.10, ptr noundef %13)
  %14 = load ptr, ptr %5, align 8
  %15 = getelementptr inbounds %struct.FRAG, ptr %14, i32 0, i32 0
  %16 = getelementptr inbounds %struct.alloced, ptr %15, i32 0, i32 1
  %17 = load i8, ptr %16, align 1
  %18 = zext i8 %17 to i32
  store i32 %18, ptr %6, align 4
  %19 = load ptr, ptr %5, align 8
  %20 = call ptr @allocbase_fromfrag(ptr noundef %19)
  store ptr %20, ptr %5, align 8
  %21 = load ptr, ptr %3, align 8
  %22 = getelementptr inbounds %struct.MP, ptr %21, i32 0, i32 1
  %23 = load i32, ptr %6, align 4
  %24 = zext i32 %23 to i64
  %25 = getelementptr inbounds [100 x ptr], ptr %22, i64 0, i64 %24
  %26 = load ptr, ptr %25, align 8
  %27 = load ptr, ptr %5, align 8
  %28 = getelementptr inbounds %struct.FRAG, ptr %27, i32 0, i32 0
  %29 = getelementptr inbounds %struct.unaligned_ptr, ptr %28, i32 0, i32 0
  store ptr %26, ptr %29, align 1
  %30 = load ptr, ptr %5, align 8
  %31 = load ptr, ptr %3, align 8
  %32 = getelementptr inbounds %struct.MP, ptr %31, i32 0, i32 1
  %33 = load i32, ptr %6, align 4
  %34 = zext i32 %33 to i64
  %35 = getelementptr inbounds [100 x ptr], ptr %32, i64 0, i64 %34
  store ptr %30, ptr %35, align 8
  br label %36

36:                                               ; preds = %10, %9
  ret void
}

; Function Attrs: nounwind uwtable
define ptr @mpool_realloc(ptr noundef %0, ptr noundef %1, i64 noundef %2) #0 {
  %4 = alloca ptr, align 8
  %5 = alloca ptr, align 8
  %6 = alloca ptr, align 8
  %7 = alloca i64, align 8
  %8 = alloca ptr, align 8
  %9 = alloca i64, align 8
  %10 = alloca ptr, align 8
  store ptr %0, ptr %5, align 8
  store ptr %1, ptr %6, align 8
  store i64 %2, ptr %7, align 8
  store ptr null, ptr %8, align 8
  store i64 0, ptr %9, align 8
  store ptr null, ptr %10, align 8
  %11 = load ptr, ptr %6, align 8
  %12 = icmp ne ptr %11, null
  br i1 %12, label %17, label %13

13:                                               ; preds = %3
  %14 = load ptr, ptr %5, align 8
  %15 = load i64, ptr %7, align 8
  %16 = call ptr @mpool_malloc(ptr noundef %14, i64 noundef %15)
  store ptr %16, ptr %4, align 8
  br label %111

17:                                               ; preds = %3
  %18 = load ptr, ptr %6, align 8
  %19 = getelementptr inbounds i8, ptr %18, i64 -2
  store ptr %19, ptr %8, align 8
  %20 = load i64, ptr %7, align 8
  %21 = icmp ne i64 %20, 0
  br i1 %21, label %22, label %30

22:                                               ; preds = %17
  %23 = load ptr, ptr %8, align 8
  %24 = getelementptr inbounds %struct.FRAG, ptr %23, i32 0, i32 0
  %25 = getelementptr inbounds %struct.alloced, ptr %24, i32 0, i32 1
  %26 = load i8, ptr %25, align 1
  %27 = zext i8 %26 to i32
  %28 = call i64 @from_bits(i32 noundef %27)
  store i64 %28, ptr %9, align 8
  %29 = icmp ne i64 %28, 0
  br i1 %29, label %32, label %30

30:                                               ; preds = %22, %17
  %31 = load i64, ptr %7, align 8
  call void (ptr, ...) @cli_errmsg(ptr noundef @.str.11, i64 noundef %31)
  store ptr null, ptr %4, align 8
  br label %111

32:                                               ; preds = %22
  %33 = load ptr, ptr %8, align 8
  %34 = getelementptr inbounds %struct.FRAG, ptr %33, i32 0, i32 0
  %35 = getelementptr inbounds %struct.alloced, ptr %34, i32 0, i32 0
  %36 = load i8, ptr %35, align 1
  %37 = zext i8 %36 to i64
  %38 = add i64 2, %37
  %39 = load i64, ptr %9, align 8
  %40 = sub i64 %39, %38
  store i64 %40, ptr %9, align 8
  %41 = load i64, ptr %9, align 8
  %42 = load i64, ptr %7, align 8
  %43 = icmp uge i64 %41, %42
  br i1 %43, label %44, label %90

44:                                               ; preds = %32
  %45 = load ptr, ptr %8, align 8
  %46 = getelementptr inbounds %struct.FRAG, ptr %45, i32 0, i32 0
  %47 = getelementptr inbounds %struct.alloced, ptr %46, i32 0, i32 1
  %48 = load i8, ptr %47, align 1
  %49 = icmp ne i8 %48, 0
  br i1 %49, label %50, label %67

50:                                               ; preds = %44
  %51 = load ptr, ptr %8, align 8
  %52 = getelementptr inbounds %struct.FRAG, ptr %51, i32 0, i32 0
  %53 = getelementptr inbounds %struct.alloced, ptr %52, i32 0, i32 1
  %54 = load i8, ptr %53, align 1
  %55 = zext i8 %54 to i32
  %56 = sub nsw i32 %55, 1
  %57 = call i64 @from_bits(i32 noundef %56)
  %58 = sub i64 %57, 2
  %59 = load ptr, ptr %8, align 8
  %60 = getelementptr inbounds %struct.FRAG, ptr %59, i32 0, i32 0
  %61 = getelementptr inbounds %struct.alloced, ptr %60, i32 0, i32 0
  %62 = load i8, ptr %61, align 1
  %63 = zext i8 %62 to i64
  %64 = sub i64 %58, %63
  %65 = load i64, ptr %7, align 8
  %66 = icmp ult i64 %64, %65
  br i1 %66, label %67, label %90

67:                                               ; preds = %50, %44
  %68 = load ptr, ptr %8, align 8
  call void (ptr, ...) @spam(ptr noundef @.str.10, ptr noundef %68)
  %69 = load ptr, ptr %8, align 8
  %70 = load i64, ptr %7, align 8
  %71 = add i64 %70, 2
  %72 = load ptr, ptr %8, align 8
  %73 = getelementptr inbounds %struct.FRAG, ptr %72, i32 0, i32 0
  %74 = getelementptr inbounds %struct.alloced, ptr %73, i32 0, i32 0
  %75 = load i8, ptr %74, align 1
  %76 = zext i8 %75 to i64
  %77 = add i64 %71, %76
  %78 = load i64, ptr %7, align 8
  %79 = load i64, ptr %9, align 8
  %80 = load i64, ptr %7, align 8
  %81 = sub i64 %79, %80
  %82 = add i64 %81, 2
  %83 = load ptr, ptr %8, align 8
  %84 = getelementptr inbounds %struct.FRAG, ptr %83, i32 0, i32 0
  %85 = getelementptr inbounds %struct.alloced, ptr %84, i32 0, i32 0
  %86 = load i8, ptr %85, align 1
  %87 = zext i8 %86 to i64
  %88 = add i64 %82, %87
  call void (ptr, ...) @spam(ptr noundef @.str.12, ptr noundef %69, i64 noundef %77, i64 noundef %78, i64 noundef %88)
  %89 = load ptr, ptr %6, align 8
  store ptr %89, ptr %4, align 8
  br label %111

90:                                               ; preds = %50, %32
  %91 = load ptr, ptr %5, align 8
  %92 = load i64, ptr %7, align 8
  %93 = call ptr @mpool_malloc(ptr noundef %91, i64 noundef %92)
  store ptr %93, ptr %10, align 8
  %94 = icmp ne ptr %93, null
  br i1 %94, label %96, label %95

95:                                               ; preds = %90
  store ptr null, ptr %4, align 8
  br label %111

96:                                               ; preds = %90
  %97 = load ptr, ptr %10, align 8
  %98 = load ptr, ptr %6, align 8
  %99 = load i64, ptr %9, align 8
  %100 = load i64, ptr %7, align 8
  %101 = icmp ule i64 %99, %100
  br i1 %101, label %102, label %104

102:                                              ; preds = %96
  %103 = load i64, ptr %9, align 8
  br label %106

104:                                              ; preds = %96
  %105 = load i64, ptr %7, align 8
  br label %106

106:                                              ; preds = %104, %102
  %107 = phi i64 [ %103, %102 ], [ %105, %104 ]
  call void @llvm.memcpy.p0.p0.i64(ptr align 1 %97, ptr align 1 %98, i64 %107, i1 false)
  %108 = load ptr, ptr %5, align 8
  %109 = load ptr, ptr %6, align 8
  call void @mpool_free(ptr noundef %108, ptr noundef %109)
  %110 = load ptr, ptr %10, align 8
  store ptr %110, ptr %4, align 8
  br label %111

111:                                              ; preds = %106, %95, %67, %30, %13
  %112 = load ptr, ptr %4, align 8
  ret ptr %112
}

; Function Attrs: nounwind uwtable
define ptr @mpool_realloc2(ptr noundef %0, ptr noundef %1, i64 noundef %2) #0 {
  %4 = alloca ptr, align 8
  %5 = alloca ptr, align 8
  %6 = alloca ptr, align 8
  %7 = alloca i64, align 8
  %8 = alloca ptr, align 8
  store ptr %0, ptr %5, align 8
  store ptr %1, ptr %6, align 8
  store i64 %2, ptr %7, align 8
  %9 = load ptr, ptr %5, align 8
  %10 = load ptr, ptr %6, align 8
  %11 = load i64, ptr %7, align 8
  %12 = call ptr @mpool_realloc(ptr noundef %9, ptr noundef %10, i64 noundef %11)
  store ptr %12, ptr %8, align 8
  %13 = load ptr, ptr %8, align 8
  %14 = icmp ne ptr %13, null
  br i1 %14, label %15, label %17

15:                                               ; preds = %3
  %16 = load ptr, ptr %8, align 8
  store ptr %16, ptr %4, align 8
  br label %20

17:                                               ; preds = %3
  %18 = load ptr, ptr %5, align 8
  %19 = load ptr, ptr %6, align 8
  call void @mpool_free(ptr noundef %18, ptr noundef %19)
  store ptr null, ptr %4, align 8
  br label %20

20:                                               ; preds = %17, %15
  %21 = load ptr, ptr %4, align 8
  ret ptr %21
}