; Function Attrs: nounwind uwtable
define ptr @mpool_realloc2(ptr noundef %0, ptr noundef %1, i64 noundef %2) local_unnamed_addr #0 {
  %.not.i = icmp eq ptr %1, null
  br i1 %.not.i, label %mpool_realloc.exit, label %4

4:                                                ; preds = %3
  %5 = getelementptr inbounds i8, ptr %1, i64 -2
  %.not41.i = icmp eq i64 %2, 0
  br i1 %.not41.i, label %from_bits.exit.thread.i, label %6

6:                                                ; preds = %4
  %7 = getelementptr inbounds i8, ptr %1, i64 -1
  %8 = load i8, ptr %7, align 1
  %9 = zext i8 %8 to i32
  %10 = icmp ugt i8 %8, 99
  br i1 %10, label %from_bits.exit.thread.i, label %from_bits.exit.i

from_bits.exit.thread.i:                          ; preds = %6, %4
  tail call void (ptr, ...) @cli_errmsg(ptr noundef nonnull @.str.11, i64 noundef %2) #10
  br label %43

from_bits.exit.i:                                 ; preds = %6
  %11 = zext nneg i8 %8 to i64
  %12 = getelementptr inbounds [100 x i32], ptr @fragsz, i64 0, i64 %11
  %13 = load i32, ptr %12, align 4
  %14 = zext i32 %13 to i64
  %15 = load i8, ptr %5, align 1
  %16 = zext i8 %15 to i64
  %.neg51.i = add nsw i64 %14, -2
  %17 = sub nsw i64 %.neg51.i, %16
  %.not43.i = icmp ult i64 %17, %2
  br i1 %.not43.i, label %30, label %18

18:                                               ; preds = %from_bits.exit.i
  %.not44.i = icmp eq i8 %8, 0
  br i1 %.not44.i, label %mpool_free.exit, label %19

19:                                               ; preds = %18
  %20 = add nsw i32 %9, -1
  %21 = icmp ugt i32 %20, 99
  br i1 %21, label %from_bits.exit48.i, label %22

22:                                               ; preds = %19
  %23 = zext nneg i32 %20 to i64
  %24 = getelementptr inbounds [100 x i32], ptr @fragsz, i64 0, i64 %23
  %25 = load i32, ptr %24, align 4
  %26 = zext i32 %25 to i64
  %27 = add nsw i64 %26, -2
  br label %from_bits.exit48.i

from_bits.exit48.i:                               ; preds = %22, %19
  %.0.i47.i = phi i64 [ %27, %22 ], [ -2, %19 ]
  %28 = sub nsw i64 %.0.i47.i, %16
  %29 = icmp ult i64 %28, %2
  br i1 %29, label %mpool_free.exit, label %30

30:                                               ; preds = %from_bits.exit48.i, %from_bits.exit.i
  %31 = tail call ptr @mpool_malloc(ptr noundef %0, i64 noundef %2)
  %.not45.i = icmp eq ptr %31, null
  br i1 %.not45.i, label %43, label %mpool_free.exit.i

mpool_free.exit.i:                                ; preds = %30
  %32 = tail call i64 @llvm.umin.i64(i64 %17, i64 %2)
  tail call void @llvm.memcpy.p0.p0.i64(ptr nonnull align 1 %31, ptr nonnull align 1 %1, i64 %32, i1 false)
  %33 = load i8, ptr %7, align 1
  %34 = load i8, ptr %5, align 1
  %35 = zext i8 %34 to i64
  %36 = sub nsw i64 0, %35
  %37 = getelementptr inbounds i8, ptr %5, i64 %36
  %38 = getelementptr inbounds i8, ptr %0, i64 8
  %39 = zext i8 %33 to i64
  %40 = getelementptr inbounds [100 x ptr], ptr %38, i64 0, i64 %39
  %41 = load ptr, ptr %40, align 8
  store ptr %41, ptr %37, align 1
  store ptr %37, ptr %40, align 8
  br label %mpool_free.exit

mpool_realloc.exit:                               ; preds = %3
  %42 = tail call ptr @mpool_malloc(ptr noundef %0, i64 noundef %2)
  br label %mpool_free.exit

43:                                               ; preds = %30, %from_bits.exit.thread.i
  %44 = getelementptr inbounds i8, ptr %1, i64 -1
  %45 = load i8, ptr %44, align 1
  %46 = load i8, ptr %5, align 1
  %47 = zext i8 %46 to i64
  %48 = sub nsw i64 0, %47
  %49 = getelementptr inbounds i8, ptr %5, i64 %48
  %50 = getelementptr inbounds i8, ptr %0, i64 8
  %51 = zext i8 %45 to i64
  %52 = getelementptr inbounds [100 x ptr], ptr %50, i64 0, i64 %51
  %53 = load ptr, ptr %52, align 8
  store ptr %53, ptr %49, align 1
  store ptr %49, ptr %52, align 8
  br label %mpool_free.exit

mpool_free.exit:                                  ; preds = %mpool_realloc.exit, %18, %from_bits.exit48.i, %mpool_free.exit.i, %43
  %.0 = phi ptr [ null, %43 ], [ %1, %18 ], [ %1, %from_bits.exit48.i ], [ %31, %mpool_free.exit.i ], [ %42, %mpool_realloc.exit ]
  ret ptr %.0
}